target datalayout = "e-m:e-p270:32:32-p271:32:32-p272:64:64-i64:64-i128:128-f80:128-n8:16:32:64-S128"
target triple = "x86_64-pc-linux-gnu"

%"class.clang::SourceLocation" = type { i32 }
%"class.clang::QualType" = type { %"class.llvm::PointerIntPair" }
%"class.llvm::PointerIntPair" = type { %"struct.llvm::detail::PunnedPointer" }
%"struct.llvm::detail::PunnedPointer" = type { [8 x i8] }
%"class.llvm::FoldingSetBase::Node" = type { ptr }
%"class.clang::TypeLoc" = type { ptr, ptr }
%"class.clang::UnqualTypeLoc" = type { %"class.clang::TypeLoc" }
%"class.clang::DependentAddressSpaceTypeLoc" = type { %"class.clang::ConcreteTypeLoc.662" }
%"class.clang::ConcreteTypeLoc.662" = type { %"class.clang::UnqualTypeLoc" }
%"class.clang::ExtQualsTypeCommonBase" = type { ptr, %"class.clang::QualType" }
%union.anon.711 = type { %"class.clang::Type::FunctionTypeBitfields" }
%"class.clang::Type::FunctionTypeBitfields" = type { i64 }
%"class.clang::Type.base" = type { %"class.clang::ExtQualsTypeCommonBase", %union.anon.711 }
%"class.clang::DependentAddressSpaceType" = type <{ %"class.clang::Type.base", %"class.llvm::FoldingSetBase::Node", ptr, %"class.clang::QualType", %"class.clang::SourceLocation", [12 x i8] }>

; Function Attrs: mustprogress nounwind uwtable
define linkonce_odr hidden noundef ptr @_ZN4llvm16cast_convert_valIN5clang25DependentAddressSpaceTypeEPKNS1_4TypeES5_E4doitES5_(ptr noundef %0) #0 comdat align 2 {
  %2 = alloca ptr, align 8
  store ptr %0, ptr %2, align 8
  %3 = load ptr, ptr %2, align 8
  ret ptr %3
}

; Function Attrs: mustprogress nounwind uwtable
define internal noundef zeroext i1 @_ZN5clang19RecursiveASTVisitorIN12_GLOBAL__N_116CacheInitializerEE9VisitTypeEPNS_4TypeE(ptr noundef nonnull align 1 dereferenceable(1) %0, ptr noundef %1) #0 align 2 {
  %3 = alloca ptr, align 8
  %4 = alloca ptr, align 8
  store ptr %0, ptr %3, align 8
  store ptr %1, ptr %4, align 8
  ret i1 true
}

; Function Attrs: mustprogress nounwind uwtable
define linkonce_odr hidden noundef ptr @_ZN4llvm8CastInfoIN5clang25DependentAddressSpaceTypeEPKNS1_4TypeEvE6doCastERKS5_(ptr noundef nonnull align 8 dereferenceable(8) %0) #0 comdat align 2 {
  %2 = alloca ptr, align 8
  store ptr %0, ptr %2, align 8
  %3 = load ptr, ptr %2, align 8
  %4 = load ptr, ptr %3, align 8
  %5 = call noundef ptr @_ZN4llvm16cast_convert_valIN5clang25DependentAddressSpaceTypeEPKNS1_4TypeES5_E4doitES5_(ptr noundef %4)
  ret ptr %5
}

; Function Attrs: mustprogress nounwind uwtable
define internal noundef zeroext i1 @_ZN5clang19RecursiveASTVisitorIN12_GLOBAL__N_116CacheInitializerEE12VisitTypeLocENS_7TypeLocE(ptr noundef nonnull align 1 dereferenceable(1) %0, ptr %1, ptr %2) #0 align 2 {
  %4 = alloca %"class.clang::TypeLoc", align 8
  %5 = alloca ptr, align 8
  %6 = getelementptr inbounds nuw { ptr, ptr }, ptr %4, i32 0, i32 0
  store ptr %1, ptr %6, align 8
  %7 = getelementptr inbounds nuw { ptr, ptr }, ptr %4, i32 0, i32 1
  store ptr %2, ptr %7, align 8
  store ptr %0, ptr %5, align 8
  ret i1 true
}

; Function Attrs: mustprogress nounwind uwtable
define internal noundef zeroext i1 @_ZN5clang19RecursiveASTVisitorIN12_GLOBAL__N_116CacheInitializerEE30VisitDependentAddressSpaceTypeEPNS_25DependentAddressSpaceTypeE(ptr noundef nonnull align 1 dereferenceable(1) %0, ptr noundef %1) #0 align 2 {
  %3 = alloca ptr, align 8
  %4 = alloca ptr, align 8
  store ptr %0, ptr %3, align 8
  store ptr %1, ptr %4, align 8
  ret i1 true
}

; Function Attrs: mustprogress nounwind uwtable
define internal noundef zeroext i1 @_ZN5clang19RecursiveASTVisitorIN12_GLOBAL__N_116CacheInitializerEE14WalkUpFromTypeEPNS_4TypeE(ptr noundef nonnull align 1 dereferenceable(1) %0, ptr noundef %1) #0 align 2 {
  %3 = alloca ptr, align 8
  %4 = alloca ptr, align 8
  store ptr %0, ptr %3, align 8
  store ptr %1, ptr %4, align 8
  %5 = load ptr, ptr %3, align 8
  %6 = call noundef nonnull align 8 dereferenceable(8) ptr @_ZN5clang19RecursiveASTVisitorIN12_GLOBAL__N_116CacheInitializerEE10getDerivedEv(ptr noundef nonnull align 1 dereferenceable(1) %5)
  %7 = load ptr, ptr %4, align 8
  %8 = call noundef zeroext i1 @_ZN5clang19RecursiveASTVisitorIN12_GLOBAL__N_116CacheInitializerEE9VisitTypeEPNS_4TypeE(ptr noundef nonnull align 1 dereferenceable(1) %6, ptr noundef %7)
  ret i1 %8
}

; Function Attrs: mustprogress nounwind uwtable
define linkonce_odr hidden noundef ptr @_ZN4llvm4castIN5clang25DependentAddressSpaceTypeEKNS1_4TypeEEEDcPT0_(ptr noundef %0) #0 comdat {
  %2 = alloca ptr, align 8
  store ptr %0, ptr %2, align 8
  %3 = call noundef ptr @_ZN4llvm8CastInfoIN5clang25DependentAddressSpaceTypeEPKNS1_4TypeEvE6doCastERKS5_(ptr noundef nonnull align 8 dereferenceable(8) %2)
  ret ptr %3
}

; Function Attrs: mustprogress nounwind uwtable
define linkonce_odr hidden noundef ptr @_ZNK5clang13UnqualTypeLoc10getTypePtrEv(ptr noundef nonnull align 8 dereferenceable(16) %0) #0 comdat align 2 {
  %2 = alloca ptr, align 8
  store ptr %0, ptr %2, align 8
  %3 = load ptr, ptr %2, align 8
  %4 = getelementptr inbounds nuw %"class.clang::TypeLoc", ptr %3, i32 0, i32 0
  %5 = load ptr, ptr %4, align 8
  ret ptr %5
}

; Function Attrs: mustprogress nounwind uwtable
define internal noundef zeroext i1 @_ZN5clang19RecursiveASTVisitorIN12_GLOBAL__N_116CacheInitializerEE33VisitDependentAddressSpaceTypeLocENS_28DependentAddressSpaceTypeLocE(ptr noundef nonnull align 1 dereferenceable(1) %0, ptr %1, ptr %2) #0 align 2 {
  %4 = alloca %"class.clang::DependentAddressSpaceTypeLoc", align 8
  %5 = alloca ptr, align 8
  %6 = getelementptr inbounds nuw { ptr, ptr }, ptr %4, i32 0, i32 0
  store ptr %1, ptr %6, align 8
  %7 = getelementptr inbounds nuw { ptr, ptr }, ptr %4, i32 0, i32 1
  store ptr %2, ptr %7, align 8
  store ptr %0, ptr %5, align 8
  ret i1 true
}

; Function Attrs: mustprogress nounwind uwtable
define internal noundef zeroext i1 @_ZN5clang19RecursiveASTVisitorIN12_GLOBAL__N_116CacheInitializerEE17WalkUpFromTypeLocENS_7TypeLocE(ptr noundef nonnull align 1 dereferenceable(1) %0, ptr %1, ptr %2) #0 align 2 {
  %4 = alloca %"class.clang::TypeLoc", align 8
  %5 = alloca ptr, align 8
  %6 = alloca %"class.clang::TypeLoc", align 8
  %7 = getelementptr inbounds nuw { ptr, ptr }, ptr %4, i32 0, i32 0
  store ptr %1, ptr %7, align 8
  %8 = getelementptr inbounds nuw { ptr, ptr }, ptr %4, i32 0, i32 1
  store ptr %2, ptr %8, align 8
  store ptr %0, ptr %5, align 8
  %9 = load ptr, ptr %5, align 8
  %10 = call noundef nonnull align 8 dereferenceable(8) ptr @_ZN5clang19RecursiveASTVisitorIN12_GLOBAL__N_116CacheInitializerEE10getDerivedEv(ptr noundef nonnull align 1 dereferenceable(1) %9)
  call void @llvm.memcpy.p0.p0.i64(ptr align 8 %6, ptr align 8 %4, i64 16, i1 false)
  %11 = getelementptr inbounds nuw { ptr, ptr }, ptr %6, i32 0, i32 0
  %12 = load ptr, ptr %11, align 8
  %13 = getelementptr inbounds nuw { ptr, ptr }, ptr %6, i32 0, i32 1
  %14 = load ptr, ptr %13, align 8
  %15 = call noundef zeroext i1 @_ZN5clang19RecursiveASTVisitorIN12_GLOBAL__N_116CacheInitializerEE12VisitTypeLocENS_7TypeLocE(ptr noundef nonnull align 1 dereferenceable(1) %10, ptr %12, ptr %14)
  ret i1 %15
}

; Function Attrs: mustprogress nounwind uwtable
define linkonce_odr hidden i64 @_ZNK5clang25DependentAddressSpaceType14getPointeeTypeEv(ptr noundef nonnull align 16 dereferenceable(52) %0) #0 comdat align 2 {
  %2 = alloca %"class.clang::QualType", align 8
  %3 = alloca ptr, align 8
  store ptr %0, ptr %3, align 8
  %4 = load ptr, ptr %3, align 8
  %5 = getelementptr inbounds nuw %"class.clang::DependentAddressSpaceType", ptr %4, i32 0, i32 3
  call void @llvm.memcpy.p0.p0.i64(ptr align 8 %2, ptr align 8 %5, i64 8, i1 false)
  %6 = getelementptr inbounds nuw %"class.clang::QualType", ptr %2, i32 0, i32 0
  %7 = getelementptr inbounds nuw %"class.llvm::PointerIntPair", ptr %6, i32 0, i32 0
  %8 = getelementptr inbounds nuw %"struct.llvm::detail::PunnedPointer", ptr %7, i32 0, i32 0
  %9 = load i64, ptr %8, align 8
  ret i64 %9
}

; Function Attrs: mustprogress nounwind uwtable
define linkonce_odr hidden noundef ptr @_ZNK5clang25DependentAddressSpaceType16getAddrSpaceExprEv(ptr noundef nonnull align 16 dereferenceable(52) %0) #0 comdat align 2 {
  %2 = alloca ptr, align 8
  store ptr %0, ptr %2, align 8
  %3 = load ptr, ptr %2, align 8
  %4 = getelementptr inbounds nuw %"class.clang::DependentAddressSpaceType", ptr %3, i32 0, i32 2
  %5 = load ptr, ptr %4, align 16
  ret ptr %5
}

; Function Attrs: mustprogress nounwind uwtable
define internal noundef zeroext i1 @_ZN5clang19RecursiveASTVisitorIN12_GLOBAL__N_116CacheInitializerEE35WalkUpFromDependentAddressSpaceTypeEPNS_25DependentAddressSpaceTypeE(ptr noundef nonnull align 1 dereferenceable(1) %0, ptr noundef %1) #0 align 2 {
  %3 = alloca i1, align 1
  %4 = alloca ptr, align 8
  %5 = alloca ptr, align 8
  store ptr %0, ptr %4, align 8
  store ptr %1, ptr %5, align 8
  %6 = load ptr, ptr %4, align 8
  br label %7

7:                                                ; preds = %2
  %8 = call noundef nonnull align 8 dereferenceable(8) ptr @_ZN5clang19RecursiveASTVisitorIN12_GLOBAL__N_116CacheInitializerEE10getDerivedEv(ptr noundef nonnull align 1 dereferenceable(1) %6)
  %9 = load ptr, ptr %5, align 8
  %10 = call noundef zeroext i1 @_ZN5clang19RecursiveASTVisitorIN12_GLOBAL__N_116CacheInitializerEE14WalkUpFromTypeEPNS_4TypeE(ptr noundef nonnull align 1 dereferenceable(1) %8, ptr noundef %9)
  br i1 %10, label %12, label %11

11:                                               ; preds = %7
  store i1 false, ptr %3, align 1
  br label %21

12:                                               ; preds = %7
  br label %13

13:                                               ; preds = %12
  br label %14

14:                                               ; preds = %13
  %15 = call noundef nonnull align 8 dereferenceable(8) ptr @_ZN5clang19RecursiveASTVisitorIN12_GLOBAL__N_116CacheInitializerEE10getDerivedEv(ptr noundef nonnull align 1 dereferenceable(1) %6)
  %16 = load ptr, ptr %5, align 8
  %17 = call noundef zeroext i1 @_ZN5clang19RecursiveASTVisitorIN12_GLOBAL__N_116CacheInitializerEE30VisitDependentAddressSpaceTypeEPNS_25DependentAddressSpaceTypeE(ptr noundef nonnull align 1 dereferenceable(1) %15, ptr noundef %16)
  br i1 %17, label %19, label %18

18:                                               ; preds = %14
  store i1 false, ptr %3, align 1
  br label %21

19:                                               ; preds = %14
  br label %20

20:                                               ; preds = %19
  store i1 true, ptr %3, align 1
  br label %21

21:                                               ; preds = %20, %18, %11
  %22 = load i1, ptr %3, align 1
  ret i1 %22
}

; Function Attrs: mustprogress nounwind uwtable
define linkonce_odr hidden noundef ptr @_ZNK5clang15ConcreteTypeLocINS_13UnqualTypeLocENS_28DependentAddressSpaceTypeLocENS_25DependentAddressSpaceTypeENS_28DependentAddressSpaceLocInfoEE10getTypePtrEv(ptr noundef nonnull align 8 dereferenceable(16) %0) #0 comdat align 2 {
  %2 = alloca ptr, align 8
  store ptr %0, ptr %2, align 8
  %3 = load ptr, ptr %2, align 8
  %4 = call noundef ptr @_ZNK5clang13UnqualTypeLoc10getTypePtrEv(ptr noundef nonnull align 8 dereferenceable(16) %3)
  %5 = call noundef ptr @_ZN4llvm4castIN5clang25DependentAddressSpaceTypeEKNS1_4TypeEEEDcPT0_(ptr noundef %4)
  ret ptr %5
}

; Function Attrs: mustprogress nounwind uwtable
define internal noundef zeroext i1 @_ZNK5clang19RecursiveASTVisitorIN12_GLOBAL__N_116CacheInitializerEE25shouldWalkTypesOfTypeLocsEv(ptr noundef nonnull align 1 dereferenceable(1) %0) #0 align 2 {
  %2 = alloca ptr, align 8
  store ptr %0, ptr %2, align 8
  ret i1 true
}

; Function Attrs: mustprogress nounwind uwtable
define internal noundef zeroext i1 @_ZN5clang19RecursiveASTVisitorIN12_GLOBAL__N_116CacheInitializerEE38WalkUpFromDependentAddressSpaceTypeLocENS_28DependentAddressSpaceTypeLocE(ptr noundef nonnull align 1 dereferenceable(1) %0, ptr %1, ptr %2) #0 align 2 {
  %4 = alloca i1, align 1
  %5 = alloca %"class.clang::DependentAddressSpaceTypeLoc", align 8
  %6 = alloca ptr, align 8
  %7 = alloca %"class.clang::TypeLoc", align 8
  %8 = alloca %"class.clang::DependentAddressSpaceTypeLoc", align 8
  %9 = getelementptr inbounds nuw { ptr, ptr }, ptr %5, i32 0, i32 0
  store ptr %1, ptr %9, align 8
  %10 = getelementptr inbounds nuw { ptr, ptr }, ptr %5, i32 0, i32 1
  store ptr %2, ptr %10, align 8
  store ptr %0, ptr %6, align 8
  %11 = load ptr, ptr %6, align 8
  br label %12

12:                                               ; preds = %3
  %13 = call noundef nonnull align 8 dereferenceable(8) ptr @_ZN5clang19RecursiveASTVisitorIN12_GLOBAL__N_116CacheInitializerEE10getDerivedEv(ptr noundef nonnull align 1 dereferenceable(1) %11)
  call void @llvm.memcpy.p0.p0.i64(ptr align 8 %7, ptr align 8 %5, i64 16, i1 false)
  %14 = getelementptr inbounds nuw { ptr, ptr }, ptr %7, i32 0, i32 0
  %15 = load ptr, ptr %14, align 8
  %16 = getelementptr inbounds nuw { ptr, ptr }, ptr %7, i32 0, i32 1
  %17 = load ptr, ptr %16, align 8
  %18 = call noundef zeroext i1 @_ZN5clang19RecursiveASTVisitorIN12_GLOBAL__N_116CacheInitializerEE17WalkUpFromTypeLocENS_7TypeLocE(ptr noundef nonnull align 1 dereferenceable(1) %13, ptr %15, ptr %17)
  br i1 %18, label %20, label %19

19:                                               ; preds = %12
  store i1 false, ptr %4, align 1
  br label %32

20:                                               ; preds = %12
  br label %21

21:                                               ; preds = %20
  br label %22

22:                                               ; preds = %21
  %23 = call noundef nonnull align 8 dereferenceable(8) ptr @_ZN5clang19RecursiveASTVisitorIN12_GLOBAL__N_116CacheInitializerEE10getDerivedEv(ptr noundef nonnull align 1 dereferenceable(1) %11)
  call void @llvm.memcpy.p0.p0.i64(ptr align 8 %8, ptr align 8 %5, i64 16, i1 false)
  %24 = getelementptr inbounds nuw { ptr, ptr }, ptr %8, i32 0, i32 0
  %25 = load ptr, ptr %24, align 8
  %26 = getelementptr inbounds nuw { ptr, ptr }, ptr %8, i32 0, i32 1
  %27 = load ptr, ptr %26, align 8
  %28 = call noundef zeroext i1 @_ZN5clang19RecursiveASTVisitorIN12_GLOBAL__N_116CacheInitializerEE33VisitDependentAddressSpaceTypeLocENS_28DependentAddressSpaceTypeLocE(ptr noundef nonnull align 1 dereferenceable(1) %23, ptr %25, ptr %27)
  br i1 %28, label %30, label %29

29:                                               ; preds = %22
  store i1 false, ptr %4, align 1
  br label %32

30:                                               ; preds = %22
  br label %31

31:                                               ; preds = %30
  store i1 true, ptr %4, align 1
  br label %32

32:                                               ; preds = %31, %29, %19
  %33 = load i1, ptr %4, align 1
  ret i1 %33
}

; Function Attrs: mustprogress nounwind uwtable
define internal noundef zeroext i1 @_ZNK5clang19RecursiveASTVisitorIN12_GLOBAL__N_116CacheInitializerEE23shouldTraversePostOrderEv(ptr noundef nonnull align 1 dereferenceable(1) %0) #0 align 2 {
  %2 = alloca ptr, align 8
  store ptr %0, ptr %2, align 8
  ret i1 false
}

; Function Attrs: mustprogress nounwind uwtable
define internal noundef nonnull align 8 dereferenceable(8) ptr @_ZN5clang19RecursiveASTVisitorIN12_GLOBAL__N_116CacheInitializerEE10getDerivedEv(ptr noundef nonnull align 1 dereferenceable(1) %0) #0 align 2 {
  %2 = alloca ptr, align 8
  store ptr %0, ptr %2, align 8
  %3 = load ptr, ptr %2, align 8
  ret ptr %3
}

; Function Attrs: mustprogress nounwind uwtable
define internal noundef zeroext i1 @_ZN5clang19RecursiveASTVisitorIN12_GLOBAL__N_116CacheInitializerEE36TraverseDependentAddressSpaceTypeLocENS_28DependentAddressSpaceTypeLocE(ptr noundef nonnull align 1 dereferenceable(1) %0, ptr %1, ptr %2) #0 align 2 {
  %4 = alloca i1, align 1
  %5 = alloca %"class.clang::DependentAddressSpaceTypeLoc", align 8
  %6 = alloca ptr, align 8
  %7 = alloca %"class.clang::DependentAddressSpaceTypeLoc", align 8
  %8 = alloca %"class.clang::QualType", align 8
  %9 = alloca %"class.clang::DependentAddressSpaceTypeLoc", align 8
  %10 = getelementptr inbounds nuw { ptr, ptr }, ptr %5, i32 0, i32 0
  store ptr %1, ptr %10, align 8
  %11 = getelementptr inbounds nuw { ptr, ptr }, ptr %5, i32 0, i32 1
  store ptr %2, ptr %11, align 8
  store ptr %0, ptr %6, align 8
  %12 = load ptr, ptr %6, align 8
  %13 = call noundef nonnull align 8 dereferenceable(8) ptr @_ZN5clang19RecursiveASTVisitorIN12_GLOBAL__N_116CacheInitializerEE10getDerivedEv(ptr noundef nonnull align 1 dereferenceable(1) %12)
  %14 = call noundef zeroext i1 @_ZNK5clang19RecursiveASTVisitorIN12_GLOBAL__N_116CacheInitializerEE23shouldTraversePostOrderEv(ptr noundef nonnull align 1 dereferenceable(1) %13)
  br i1 %14, label %37, label %15

15:                                               ; preds = %3
  br label %16

16:                                               ; preds = %15
  %17 = call noundef nonnull align 8 dereferenceable(8) ptr @_ZN5clang19RecursiveASTVisitorIN12_GLOBAL__N_116CacheInitializerEE10getDerivedEv(ptr noundef nonnull align 1 dereferenceable(1) %12)
  call void @llvm.memcpy.p0.p0.i64(ptr align 8 %7, ptr align 8 %5, i64 16, i1 false)
  %18 = getelementptr inbounds nuw { ptr, ptr }, ptr %7, i32 0, i32 0
  %19 = load ptr, ptr %18, align 8
  %20 = getelementptr inbounds nuw { ptr, ptr }, ptr %7, i32 0, i32 1
  %21 = load ptr, ptr %20, align 8
  %22 = call noundef zeroext i1 @_ZN5clang19RecursiveASTVisitorIN12_GLOBAL__N_116CacheInitializerEE38WalkUpFromDependentAddressSpaceTypeLocENS_28DependentAddressSpaceTypeLocE(ptr noundef nonnull align 1 dereferenceable(1) %17, ptr %19, ptr %21)
  br i1 %22, label %24, label %23

23:                                               ; preds = %16
  store i1 false, ptr %4, align 1
  br label %86

24:                                               ; preds = %16
  br label %25

25:                                               ; preds = %24
  %26 = call noundef nonnull align 8 dereferenceable(8) ptr @_ZN5clang19RecursiveASTVisitorIN12_GLOBAL__N_116CacheInitializerEE10getDerivedEv(ptr noundef nonnull align 1 dereferenceable(1) %12)
  %27 = call noundef zeroext i1 @_ZNK5clang19RecursiveASTVisitorIN12_GLOBAL__N_116CacheInitializerEE25shouldWalkTypesOfTypeLocsEv(ptr noundef nonnull align 1 dereferenceable(1) %26)
  br i1 %27, label %28, label %36

28:                                               ; preds = %25
  br label %29

29:                                               ; preds = %28
  %30 = call noundef nonnull align 8 dereferenceable(8) ptr @_ZN5clang19RecursiveASTVisitorIN12_GLOBAL__N_116CacheInitializerEE10getDerivedEv(ptr noundef nonnull align 1 dereferenceable(1) %12)
  %31 = call noundef ptr @_ZNK5clang15ConcreteTypeLocINS_13UnqualTypeLocENS_28DependentAddressSpaceTypeLocENS_25DependentAddressSpaceTypeENS_28DependentAddressSpaceLocInfoEE10getTypePtrEv(ptr noundef nonnull align 8 dereferenceable(16) %5)
  %32 = call noundef zeroext i1 @_ZN5clang19RecursiveASTVisitorIN12_GLOBAL__N_116CacheInitializerEE35WalkUpFromDependentAddressSpaceTypeEPNS_25DependentAddressSpaceTypeE(ptr noundef nonnull align 1 dereferenceable(1) %30, ptr noundef %31)
  br i1 %32, label %34, label %33

33:                                               ; preds = %29
  store i1 false, ptr %4, align 1
  br label %86

34:                                               ; preds = %29
  br label %35

35:                                               ; preds = %34
  br label %36

36:                                               ; preds = %35, %25
  br label %37

37:                                               ; preds = %36, %3
  br label %38

38:                                               ; preds = %37
  %39 = call noundef nonnull align 8 dereferenceable(8) ptr @_ZN5clang19RecursiveASTVisitorIN12_GLOBAL__N_116CacheInitializerEE10getDerivedEv(ptr noundef nonnull align 1 dereferenceable(1) %12)
  %40 = call noundef ptr @_ZNK5clang15ConcreteTypeLocINS_13UnqualTypeLocENS_28DependentAddressSpaceTypeLocENS_25DependentAddressSpaceTypeENS_28DependentAddressSpaceLocInfoEE10getTypePtrEv(ptr noundef nonnull align 8 dereferenceable(16) %5)
  %41 = call noundef ptr @_ZNK5clang25DependentAddressSpaceType16getAddrSpaceExprEv(ptr noundef nonnull align 16 dereferenceable(52) %40)
  %42 = call noundef zeroext i1 @_ZN5clang19RecursiveASTVisitorIN12_GLOBAL__N_116CacheInitializerEE12TraverseStmtEPNS_4StmtEPN4llvm15SmallVectorImplINS6_14PointerIntPairIS5_Lj1EbNS6_21PointerLikeTypeTraitsIS5_EENS6_18PointerIntPairInfoIS5_Lj1ESA_EEEEEE(ptr noundef nonnull align 1 dereferenceable(1) %39, ptr noundef %41, ptr noundef null)
  br i1 %42, label %44, label %43

43:                                               ; preds = %38
  store i1 false, ptr %4, align 1
  br label %86

44:                                               ; preds = %38
  br label %45

45:                                               ; preds = %44
  br label %46

46:                                               ; preds = %45
  %47 = call noundef nonnull align 8 dereferenceable(8) ptr @_ZN5clang19RecursiveASTVisitorIN12_GLOBAL__N_116CacheInitializerEE10getDerivedEv(ptr noundef nonnull align 1 dereferenceable(1) %12)
  %48 = call noundef ptr @_ZNK5clang15ConcreteTypeLocINS_13UnqualTypeLocENS_28DependentAddressSpaceTypeLocENS_25DependentAddressSpaceTypeENS_28DependentAddressSpaceLocInfoEE10getTypePtrEv(ptr noundef nonnull align 8 dereferenceable(16) %5)
  %49 = call i64 @_ZNK5clang25DependentAddressSpaceType14getPointeeTypeEv(ptr noundef nonnull align 16 dereferenceable(52) %48)
  %50 = getelementptr inbounds nuw %"class.clang::QualType", ptr %8, i32 0, i32 0
  %51 = getelementptr inbounds nuw %"class.llvm::PointerIntPair", ptr %50, i32 0, i32 0
  %52 = getelementptr inbounds nuw %"struct.llvm::detail::PunnedPointer", ptr %51, i32 0, i32 0
  store i64 %49, ptr %52, align 8
  %53 = getelementptr inbounds nuw %"class.clang::QualType", ptr %8, i32 0, i32 0
  %54 = getelementptr inbounds nuw %"class.llvm::PointerIntPair", ptr %53, i32 0, i32 0
  %55 = getelementptr inbounds nuw %"struct.llvm::detail::PunnedPointer", ptr %54, i32 0, i32 0
  %56 = load i64, ptr %55, align 8
  %57 = call noundef zeroext i1 @_ZN5clang19RecursiveASTVisitorIN12_GLOBAL__N_116CacheInitializerEE12TraverseTypeENS_8QualTypeE(ptr noundef nonnull align 1 dereferenceable(1) %47, i64 %56)
  br i1 %57, label %59, label %58

58:                                               ; preds = %46
  store i1 false, ptr %4, align 1
  br label %86

59:                                               ; preds = %46
  br label %60

60:                                               ; preds = %59
  %61 = call noundef nonnull align 8 dereferenceable(8) ptr @_ZN5clang19RecursiveASTVisitorIN12_GLOBAL__N_116CacheInitializerEE10getDerivedEv(ptr noundef nonnull align 1 dereferenceable(1) %12)
  %62 = call noundef zeroext i1 @_ZNK5clang19RecursiveASTVisitorIN12_GLOBAL__N_116CacheInitializerEE23shouldTraversePostOrderEv(ptr noundef nonnull align 1 dereferenceable(1) %61)
  br i1 %62, label %63, label %85

63:                                               ; preds = %60
  br label %64

64:                                               ; preds = %63
  %65 = call noundef nonnull align 8 dereferenceable(8) ptr @_ZN5clang19RecursiveASTVisitorIN12_GLOBAL__N_116CacheInitializerEE10getDerivedEv(ptr noundef nonnull align 1 dereferenceable(1) %12)
  call void @llvm.memcpy.p0.p0.i64(ptr align 8 %9, ptr align 8 %5, i64 16, i1 false)
  %66 = getelementptr inbounds nuw { ptr, ptr }, ptr %9, i32 0, i32 0
  %67 = load ptr, ptr %66, align 8
  %68 = getelementptr inbounds nuw { ptr, ptr }, ptr %9, i32 0, i32 1
  %69 = load ptr, ptr %68, align 8
  %70 = call noundef zeroext i1 @_ZN5clang19RecursiveASTVisitorIN12_GLOBAL__N_116CacheInitializerEE38WalkUpFromDependentAddressSpaceTypeLocENS_28DependentAddressSpaceTypeLocE(ptr noundef nonnull align 1 dereferenceable(1) %65, ptr %67, ptr %69)
  br i1 %70, label %72, label %71

71:                                               ; preds = %64
  store i1 false, ptr %4, align 1
  br label %86

72:                                               ; preds = %64
  br label %73

73:                                               ; preds = %72
  %74 = call noundef nonnull align 8 dereferenceable(8) ptr @_ZN5clang19RecursiveASTVisitorIN12_GLOBAL__N_116CacheInitializerEE10getDerivedEv(ptr noundef nonnull align 1 dereferenceable(1) %12)
  %75 = call noundef zeroext i1 @_ZNK5clang19RecursiveASTVisitorIN12_GLOBAL__N_116CacheInitializerEE25shouldWalkTypesOfTypeLocsEv(ptr noundef nonnull align 1 dereferenceable(1) %74)
  br i1 %75, label %76, label %84

76:                                               ; preds = %73
  br label %77

77:                                               ; preds = %76
  %78 = call noundef nonnull align 8 dereferenceable(8) ptr @_ZN5clang19RecursiveASTVisitorIN12_GLOBAL__N_116CacheInitializerEE10getDerivedEv(ptr noundef nonnull align 1 dereferenceable(1) %12)
  %79 = call noundef ptr @_ZNK5clang15ConcreteTypeLocINS_13UnqualTypeLocENS_28DependentAddressSpaceTypeLocENS_25DependentAddressSpaceTypeENS_28DependentAddressSpaceLocInfoEE10getTypePtrEv(ptr noundef nonnull align 8 dereferenceable(16) %5)
  %80 = call noundef zeroext i1 @_ZN5clang19RecursiveASTVisitorIN12_GLOBAL__N_116CacheInitializerEE35WalkUpFromDependentAddressSpaceTypeEPNS_25DependentAddressSpaceTypeE(ptr noundef nonnull align 1 dereferenceable(1) %78, ptr noundef %79)
  br i1 %80, label %82, label %81

81:                                               ; preds = %77
  store i1 false, ptr %4, align 1
  br label %86

82:                                               ; preds = %77
  br label %83

83:                                               ; preds = %82
  br label %84

84:                                               ; preds = %83, %73
  br label %85

85:                                               ; preds = %84, %60
  store i1 true, ptr %4, align 1
  br label %86

86:                                               ; preds = %85, %81, %71, %58, %43, %33, %23
  %87 = load i1, ptr %4, align 1
  ret i1 %87
}